target datalayout = "e-m:e-p270:32:32-p271:32:32-p272:64:64-i64:64-i128:128-f80:128-n8:16:32:64-S128"
target triple = "x86_64-pc-linux-gnu"

; Function Attrs: mustprogress nounwind uwtable
define noundef float @_ZN5faiss10fvec_L2sqrEPKfS1_m(ptr noundef %0, ptr noundef %1, i64 noundef %2) #0 {
  %4 = alloca ptr, align 8
  %5 = alloca ptr, align 8
  %6 = alloca i64, align 8
  %7 = alloca i64, align 8
  %8 = alloca float, align 4
  %9 = alloca float, align 4
  store ptr %0, ptr %4, align 8, !tbaa !4
  store ptr %1, ptr %5, align 8, !tbaa !4
  store i64 %2, ptr %6, align 8, !tbaa !9
  call void @llvm.lifetime.start.p0(i64 8, ptr %7) #13
  call void @llvm.lifetime.start.p0(i64 4, ptr %8) #13
  store float 0.000000e+00, ptr %8, align 4, !tbaa !11
  store i64 0, ptr %7, align 8, !tbaa !9
  br label %10

10:                                               ; preds = %29, %3
  %11 = load i64, ptr %7, align 8, !tbaa !9
  %12 = load i64, ptr %6, align 8, !tbaa !9
  %13 = icmp ult i64 %11, %12
  br i1 %13, label %14, label %32

14:                                               ; preds = %10
  call void @llvm.lifetime.start.p0(i64 4, ptr %9) #13
  %15 = load ptr, ptr %4, align 8, !tbaa !4
  %16 = load i64, ptr %7, align 8, !tbaa !9
  %17 = getelementptr inbounds nuw float, ptr %15, i64 %16
  %18 = load float, ptr %17, align 4, !tbaa !11
  %19 = load ptr, ptr %5, align 8, !tbaa !4
  %20 = load i64, ptr %7, align 8, !tbaa !9
  %21 = getelementptr inbounds nuw float, ptr %19, i64 %20
  %22 = load float, ptr %21, align 4, !tbaa !11
  %23 = fsub fast float %18, %22
  store float %23, ptr %9, align 4, !tbaa !11
  %24 = load float, ptr %9, align 4, !tbaa !11
  %25 = load float, ptr %9, align 4, !tbaa !11
  %26 = fmul fast float %24, %25
  %27 = load float, ptr %8, align 4, !tbaa !11
  %28 = fadd fast float %27, %26
  store float %28, ptr %8, align 4, !tbaa !11
  call void @llvm.lifetime.end.p0(i64 4, ptr %9) #13
  br label %29

29:                                               ; preds = %14
  %30 = load i64, ptr %7, align 8, !tbaa !9
  %31 = add i64 %30, 1
  store i64 %31, ptr %7, align 8, !tbaa !9
  br label %10, !llvm.loop !17

32:                                               ; preds = %10
  %33 = load float, ptr %8, align 4, !tbaa !11
  call void @llvm.lifetime.end.p0(i64 4, ptr %8) #13
  call void @llvm.lifetime.end.p0(i64 8, ptr %7) #13
  ret float %33
}

; Function Attrs: mustprogress uwtable
define void @_ZN5faiss17fvec_L2sqr_ny_refEPfPKfS2_mm(ptr noundef %0, ptr noundef %1, ptr noundef %2, i64 noundef %3, i64 noundef %4) #3 {
  %6 = alloca ptr, align 8
  %7 = alloca ptr, align 8
  %8 = alloca ptr, align 8
  %9 = alloca i64, align 8
  %10 = alloca i64, align 8
  %11 = alloca i64, align 8
  store ptr %0, ptr %6, align 8, !tbaa !4
  store ptr %1, ptr %7, align 8, !tbaa !4
  store ptr %2, ptr %8, align 8, !tbaa !4
  store i64 %3, ptr %9, align 8, !tbaa !9
  store i64 %4, ptr %10, align 8, !tbaa !9
  call void @llvm.lifetime.start.p0(i64 8, ptr %11) #13
  store i64 0, ptr %11, align 8, !tbaa !9
  br label %12

12:                                               ; preds = %28, %5
  %13 = load i64, ptr %11, align 8, !tbaa !9
  %14 = load i64, ptr %10, align 8, !tbaa !9
  %15 = icmp ult i64 %13, %14
  br i1 %15, label %17, label %16

16:                                               ; preds = %12
  call void @llvm.lifetime.end.p0(i64 8, ptr %11) #13
  br label %31

17:                                               ; preds = %12
  %18 = load ptr, ptr %7, align 8, !tbaa !4
  %19 = load ptr, ptr %8, align 8, !tbaa !4
  %20 = load i64, ptr %9, align 8, !tbaa !9
  %21 = call noundef float @_ZN5faiss10fvec_L2sqrEPKfS1_m(ptr noundef %18, ptr noundef %19, i64 noundef %20)
  %22 = load ptr, ptr %6, align 8, !tbaa !4
  %23 = load i64, ptr %11, align 8, !tbaa !9
  %24 = getelementptr inbounds nuw float, ptr %22, i64 %23
  store float %21, ptr %24, align 4, !tbaa !11
  %25 = load i64, ptr %9, align 8, !tbaa !9
  %26 = load ptr, ptr %8, align 8, !tbaa !4
  %27 = getelementptr inbounds nuw float, ptr %26, i64 %25
  store ptr %27, ptr %8, align 8, !tbaa !4
  br label %28

28:                                               ; preds = %17
  %29 = load i64, ptr %11, align 8, !tbaa !9
  %30 = add i64 %29, 1
  store i64 %30, ptr %11, align 8, !tbaa !9
  br label %12, !llvm.loop !16

31:                                               ; preds = %16
  ret void
}